target datalayout = "e-m:e-p270:32:32-p271:32:32-p272:64:64-i64:64-i128:128-f80:128-n8:16:32:64-S128"
target triple = "x86_64-pc-linux-gnu"

%struct.ossl_verify_cb_args = type { i64, i64, i64 }
%struct.RTypedData = type { %struct.RBasic, ptr, i64, ptr }
%struct.RBasic = type { i64, i64 }

@.str = private unnamed_addr constant [36 x i8] c"StoreContext initialization failure\00", align 1
@.str.1 = private unnamed_addr constant [40 x i8] c"exception in verify_callback is ignored\00", align 1

; Function Attrs: inlinehint nounwind sspstrong willreturn memory(none) uwtable
define internal zeroext i1 @RB_NIL_P(i64 noundef %0) #2 {
  %2 = alloca i64, align 8
  store i64 %0, ptr %2, align 8, !tbaa !6
  %3 = load i64, ptr %2, align 8, !tbaa !6
  %4 = icmp eq i64 %3, 4
  ret i1 %4
}

; Function Attrs: nounwind sspstrong uwtable
define i32 @ossl_verify_cb_call(i64 noundef %0, i32 noundef %1, ptr noundef %2) #0 {
  %4 = alloca i32, align 4
  %5 = alloca i64, align 8
  %6 = alloca i32, align 4
  %7 = alloca ptr, align 8
  %8 = alloca i64, align 8
  %9 = alloca i64, align 8
  %10 = alloca %struct.ossl_verify_cb_args, align 8
  %11 = alloca i32, align 4
  %12 = alloca i32, align 4
  store i64 %0, ptr %5, align 8, !tbaa !6
  store i32 %1, ptr %6, align 4, !tbaa !10
  store ptr %2, ptr %7, align 8, !tbaa !12
  call void @llvm.lifetime.start.p0(i64 8, ptr %8) #12
  call void @llvm.lifetime.start.p0(i64 8, ptr %9) #12
  call void @llvm.lifetime.start.p0(i64 24, ptr %10) #12
  call void @llvm.lifetime.start.p0(i64 4, ptr %11) #12
  %13 = load i64, ptr %5, align 8, !tbaa !6
  %14 = call zeroext i1 @RB_NIL_P(i64 noundef %13) #13
  br i1 %14, label %15, label %17

15:                                               ; preds = %3
  %16 = load i32, ptr %6, align 4, !tbaa !10
  store i32 %16, ptr %4, align 4
  store i32 1, ptr %12, align 4
  br label %56

17:                                               ; preds = %3
  store i64 0, ptr %9, align 8, !tbaa !6
  %18 = load ptr, ptr %7, align 8, !tbaa !12
  %19 = ptrtoint ptr %18 to i64
  %20 = call i64 @rb_protect(ptr noundef @ossl_x509stctx_new_i, i64 noundef %19, ptr noundef %11)
  store i64 %20, ptr %8, align 8, !tbaa !6
  %21 = load i32, ptr %11, align 4, !tbaa !10
  %22 = icmp ne i32 %21, 0
  br i1 %22, label %23, label %24

23:                                               ; preds = %17
  call void @rb_set_errinfo(i64 noundef 4)
  call void (ptr, ...) @rb_warn(ptr noundef @.str) #14
  br label %42

24:                                               ; preds = %17
  %25 = load i64, ptr %5, align 8, !tbaa !6
  %26 = getelementptr inbounds nuw %struct.ossl_verify_cb_args, ptr %10, i32 0, i32 0
  store i64 %25, ptr %26, align 8, !tbaa !15
  %27 = load i32, ptr %6, align 4, !tbaa !10
  %28 = icmp ne i32 %27, 0
  %29 = select i1 %28, i64 20, i64 0
  %30 = getelementptr inbounds nuw %struct.ossl_verify_cb_args, ptr %10, i32 0, i32 1
  store i64 %29, ptr %30, align 8, !tbaa !17
  %31 = load i64, ptr %8, align 8, !tbaa !6
  %32 = getelementptr inbounds nuw %struct.ossl_verify_cb_args, ptr %10, i32 0, i32 2
  store i64 %31, ptr %32, align 8, !tbaa !18
  %33 = ptrtoint ptr %10 to i64
  %34 = call i64 @rb_protect(ptr noundef @call_verify_cb_proc, i64 noundef %33, ptr noundef %11)
  store i64 %34, ptr %9, align 8, !tbaa !6
  %35 = load i32, ptr %11, align 4, !tbaa !10
  %36 = icmp ne i32 %35, 0
  br i1 %36, label %37, label %38

37:                                               ; preds = %24
  call void @rb_set_errinfo(i64 noundef 4)
  call void (ptr, ...) @rb_warn(ptr noundef @.str.1) #14
  br label %38

38:                                               ; preds = %37, %24
  %39 = load i64, ptr %8, align 8, !tbaa !6
  %40 = inttoptr i64 %39 to ptr
  %41 = getelementptr inbounds nuw %struct.RTypedData, ptr %40, i32 0, i32 3
  store ptr null, ptr %41, align 8, !tbaa !19
  br label %42

42:                                               ; preds = %38, %23
  %43 = load i64, ptr %9, align 8, !tbaa !6
  %44 = icmp eq i64 %43, 20
  br i1 %44, label %45, label %47

45:                                               ; preds = %42
  %46 = load ptr, ptr %7, align 8, !tbaa !12
  call void @X509_STORE_CTX_set_error(ptr noundef %46, i32 noundef 0)
  store i32 1, ptr %6, align 4, !tbaa !10
  br label %54

47:                                               ; preds = %42
  %48 = load ptr, ptr %7, align 8, !tbaa !12
  %49 = call i32 @X509_STORE_CTX_get_error(ptr noundef %48)
  %50 = icmp eq i32 %49, 0
  br i1 %50, label %51, label %53

51:                                               ; preds = %47
  %52 = load ptr, ptr %7, align 8, !tbaa !12
  call void @X509_STORE_CTX_set_error(ptr noundef %52, i32 noundef 28)
  br label %53

53:                                               ; preds = %51, %47
  store i32 0, ptr %6, align 4, !tbaa !10
  br label %54

54:                                               ; preds = %53, %45
  %55 = load i32, ptr %6, align 4, !tbaa !10
  store i32 %55, ptr %4, align 4
  store i32 1, ptr %12, align 4
  br label %56

56:                                               ; preds = %54, %15
  call void @llvm.lifetime.end.p0(i64 4, ptr %11) #12
  call void @llvm.lifetime.end.p0(i64 24, ptr %10) #12
  call void @llvm.lifetime.end.p0(i64 8, ptr %9) #12
  call void @llvm.lifetime.end.p0(i64 8, ptr %8) #12
  %57 = load i32, ptr %4, align 4
  ret i32 %57
}