; Function Attrs: nounwind sspstrong uwtable
define noundef i32 @ossl_verify_cb_call(i64 noundef %0, i32 noundef %1, ptr noundef %2) local_unnamed_addr #0 {
  %4 = alloca %struct.ossl_verify_cb_args, align 8
  %5 = alloca i32, align 4
  call void @llvm.lifetime.start.p0(i64 24, ptr nonnull %4) #5
  call void @llvm.lifetime.start.p0(i64 4, ptr nonnull %5) #5
  %6 = icmp eq i64 %0, 4
  br i1 %6, label %26, label %7

7:                                                ; preds = %3
  %8 = ptrtoint ptr %2 to i64
  %9 = call i64 @rb_protect(ptr noundef nonnull @ossl_x509stctx_new_i, i64 noundef %8, ptr noundef nonnull %5) #5
  %10 = load i32, ptr %5, align 4, !tbaa !6
  %.not = icmp eq i32 %10, 0
  br i1 %.not, label %11, label %.critedge

.critedge:                                        ; preds = %7
  call void @rb_set_errinfo(i64 noundef 4) #5
  call void (ptr, ...) @rb_warn(ptr noundef nonnull @.str) #6
  br label %23

11:                                               ; preds = %7
  store i64 %0, ptr %4, align 8, !tbaa !10
  %.not14 = icmp eq i32 %1, 0
  %12 = select i1 %.not14, i64 0, i64 20
  %13 = getelementptr inbounds nuw i8, ptr %4, i64 8
  store i64 %12, ptr %13, align 8, !tbaa !13
  %14 = getelementptr inbounds nuw i8, ptr %4, i64 16
  store i64 %9, ptr %14, align 8, !tbaa !14
  %15 = ptrtoint ptr %4 to i64
  %16 = call i64 @rb_protect(ptr noundef nonnull @call_verify_cb_proc, i64 noundef %15, ptr noundef nonnull %5) #5
  %17 = load i32, ptr %5, align 4, !tbaa !6
  %.not15 = icmp eq i32 %17, 0
  br i1 %.not15, label %19, label %18

18:                                               ; preds = %11
  call void @rb_set_errinfo(i64 noundef 4) #5
  call void (ptr, ...) @rb_warn(ptr noundef nonnull @.str.1) #6
  br label %19

19:                                               ; preds = %18, %11
  %20 = inttoptr i64 %9 to ptr
  %21 = getelementptr inbounds nuw i8, ptr %20, i64 32
  store ptr null, ptr %21, align 8, !tbaa !15
  %22 = icmp eq i64 %16, 20
  br i1 %22, label %.sink.split, label %23

23:                                               ; preds = %.critedge, %19
  %24 = call i32 @X509_STORE_CTX_get_error(ptr noundef %2) #5
  %25 = icmp eq i32 %24, 0
  br i1 %25, label %.sink.split, label %26

.sink.split:                                      ; preds = %23, %19
  %.sink = phi i32 [ 0, %19 ], [ 28, %23 ]
  %.012.ph = phi i32 [ 1, %19 ], [ 0, %23 ]
  call void @X509_STORE_CTX_set_error(ptr noundef %2, i32 noundef %.sink) #5
  br label %26

26:                                               ; preds = %.sink.split, %23, %3
  %.012 = phi i32 [ %1, %3 ], [ 0, %23 ], [ %.012.ph, %.sink.split ]
  call void @llvm.lifetime.end.p0(i64 4, ptr nonnull %5) #5
  call void @llvm.lifetime.end.p0(i64 24, ptr nonnull %4) #5
  ret i32 %.012
}